target datalayout = "e-m:e-p270:32:32-p271:32:32-p272:64:64-i64:64-i128:128-f80:128-n8:16:32:64-S128"
target triple = "x86_64-pc-linux-gnu"

%struct.H5FL_blk_head_t = type { i8, i32, i32, i64, ptr, ptr }
%struct.H5FL_reg_head_t = type { i8, i32, i32, ptr, i64, ptr }
%struct.H5FA_dbk_page_t = type { %struct.H5C_cache_entry_t, ptr, ptr, ptr, i64, i64, i64 }
%struct.H5C_cache_entry_t = type { ptr, i64, i64, ptr, i8, ptr, i8, i8, i8, i8, i32, i8, i8, i8, i8, i8, i32, ptr, i32, i32, i32, i32, i32, i8, i8, ptr, ptr, ptr, ptr, ptr, ptr, i8, i32, i8, i64, ptr, i64, i64, i32, i8, i32, i32, i8, ptr, ptr, ptr }

@H5_page_elmts_blk_free_list = global %struct.H5FL_blk_head_t { i8 0, i32 0, i32 0, i64 0, ptr @.str, ptr null }, align 8
@H5_H5FA_dblk_page_t_reg_free_list = internal global %struct.H5FL_reg_head_t { i8 0, i32 0, i32 0, ptr @.str.13, i64 296, ptr null }, align 8
@.str.1 = private unnamed_addr constant [106 x i8] c"generated/home/dtcxzyw/WorkSpace/Projects/compilers/llvm-opt-benchmark/bench/hdf5/hdf5/src/H5FAdblkpage.c\00", align 1
@H5E_FARRAY_g = external global i64, align 8
@__func__.H5FA__dblk_page_dest = private unnamed_addr constant [21 x i8] c"H5FA__dblk_page_dest\00", align 1
@H5E_CANTDEC_g = external global i64, align 8
@.str.12 = private unnamed_addr constant [55 x i8] c"can't decrement reference count on shared array header\00", align 1

; Function Attrs: nounwind uwtable
define i32 @H5FA__dblk_page_dest(ptr noundef %0) #0 {
  %2 = alloca ptr, align 8
  %3 = alloca i32, align 4
  %4 = alloca i8, align 1
  store ptr %0, ptr %2, align 8
  store i32 0, ptr %3, align 4
  store i8 0, ptr %4, align 1
  %5 = load ptr, ptr %2, align 8
  %6 = getelementptr inbounds %struct.H5FA_dbk_page_t, ptr %5, i32 0, i32 2
  %7 = load ptr, ptr %6, align 8
  %8 = icmp ne ptr %7, null
  br i1 %8, label %9, label %45

9:                                                ; preds = %1
  %10 = load ptr, ptr %2, align 8
  %11 = getelementptr inbounds %struct.H5FA_dbk_page_t, ptr %10, i32 0, i32 1
  %12 = load ptr, ptr %11, align 8
  %13 = icmp ne ptr %12, null
  br i1 %13, label %14, label %21

14:                                               ; preds = %9
  %15 = load ptr, ptr %2, align 8
  %16 = getelementptr inbounds %struct.H5FA_dbk_page_t, ptr %15, i32 0, i32 1
  %17 = load ptr, ptr %16, align 8
  %18 = call ptr @H5FL_blk_free(ptr noundef @H5_page_elmts_blk_free_list, ptr noundef %17)
  %19 = load ptr, ptr %2, align 8
  %20 = getelementptr inbounds %struct.H5FA_dbk_page_t, ptr %19, i32 0, i32 1
  store ptr %18, ptr %20, align 8
  br label %21

21:                                               ; preds = %14, %9
  %22 = load ptr, ptr %2, align 8
  %23 = getelementptr inbounds %struct.H5FA_dbk_page_t, ptr %22, i32 0, i32 2
  %24 = load ptr, ptr %23, align 8
  %25 = call i32 @H5FA__hdr_decr(ptr noundef %24)
  %26 = icmp slt i32 %25, 0
  br i1 %26, label %27, label %42

27:                                               ; preds = %21
  br label %28

28:                                               ; preds = %27
  br label %29

29:                                               ; preds = %28
  br label %30

30:                                               ; preds = %29
  %31 = load i64, ptr @H5E_FARRAY_g, align 8
  %32 = load i64, ptr @H5E_CANTDEC_g, align 8
  %33 = call i32 (ptr, ptr, i32, i64, i64, ptr, ...) @H5E_printf_stack(ptr noundef @.str.1, ptr noundef @__func__.H5FA__dblk_page_dest, i32 noundef 329, i64 noundef %31, i64 noundef %32, ptr noundef @.str.12)
  br label %34

34:                                               ; preds = %30
  store i8 1, ptr %4, align 1
  %35 = load i8, ptr %4, align 1
  %36 = trunc i8 %35 to i1
  %37 = zext i1 %36 to i8
  store i8 %37, ptr %4, align 1
  br label %38

38:                                               ; preds = %34
  br label %39

39:                                               ; preds = %38
  store i32 -1, ptr %3, align 4
  br label %48

40:                                               ; No predecessors!
  br label %41

41:                                               ; preds = %40
  br label %42

42:                                               ; preds = %41, %21
  %43 = load ptr, ptr %2, align 8
  %44 = getelementptr inbounds %struct.H5FA_dbk_page_t, ptr %43, i32 0, i32 2
  store ptr null, ptr %44, align 8
  br label %45

45:                                               ; preds = %42, %1
  %46 = load ptr, ptr %2, align 8
  %47 = call ptr @H5FL_reg_free(ptr noundef @H5_H5FA_dblk_page_t_reg_free_list, ptr noundef %46)
  store ptr %47, ptr %2, align 8
  br label %48

48:                                               ; preds = %45, %39
  %49 = load i32, ptr %3, align 4
  ret i32 %49
}