; Function Attrs: nounwind uwtable
define range(i32 -1, 1) i32 @H5FA__dblk_page_dest(ptr noundef %0) local_unnamed_addr #0 {
  %2 = getelementptr inbounds i8, ptr %0, i64 256
  %3 = load ptr, ptr %2, align 8
  %.not = icmp eq ptr %3, null
  br i1 %.not, label %18, label %4

4:                                                ; preds = %1
  %5 = getelementptr inbounds i8, ptr %0, i64 248
  %6 = load ptr, ptr %5, align 8
  %.not9 = icmp eq ptr %6, null
  br i1 %.not9, label %9, label %7

7:                                                ; preds = %4
  %8 = tail call ptr @H5FL_blk_free(ptr noundef nonnull @H5_page_elmts_blk_free_list, ptr noundef nonnull %6) #2
  store ptr %8, ptr %5, align 8
  %.pre = load ptr, ptr %2, align 8
  br label %9

9:                                                ; preds = %7, %4
  %10 = phi ptr [ %.pre, %7 ], [ %3, %4 ]
  %11 = tail call i32 @H5FA__hdr_decr(ptr noundef %10) #2
  %12 = icmp slt i32 %11, 0
  br i1 %12, label %13, label %17

13:                                               ; preds = %9
  %14 = load i64, ptr @H5E_FARRAY_g, align 8
  %15 = load i64, ptr @H5E_CANTDEC_g, align 8
  %16 = tail call i32 (ptr, ptr, i32, i64, i64, ptr, ...) @H5E_printf_stack(ptr noundef nonnull @.str.1, ptr noundef nonnull @__func__.H5FA__dblk_page_dest, i32 noundef 329, i64 noundef %14, i64 noundef %15, ptr noundef nonnull @.str.12) #2
  br label %20

17:                                               ; preds = %9
  store ptr null, ptr %2, align 8
  br label %18

18:                                               ; preds = %17, %1
  %19 = tail call ptr @H5FL_reg_free(ptr noundef nonnull @H5_H5FA_dblk_page_t_reg_free_list, ptr noundef nonnull %0) #2
  br label %20

20:                                               ; preds = %18, %13
  %.0 = phi i32 [ -1, %13 ], [ 0, %18 ]
  ret i32 %.0
}